; Function Attrs: mustprogress nounwind uwtable
define internal fastcc void @_ZNSt10unique_ptrIN8facebook5velox10serializer6presto12_GLOBAL__N_112VectorStreamESt14default_deleteIS5_EED2Ev(ptr nocapture noundef nonnull align 8 dereferenceable(8) %this) unnamed_addr #2 align 2 {
entry:
  %0 = load ptr, ptr %this, align 8
  %cmp.not = icmp eq ptr %0, null
  br i1 %cmp.not, label %if.end, label %_ZNKSt14default_deleteIN8facebook5velox10serializer6presto12_GLOBAL__N_112VectorStreamEEclEPS5_.exit

_ZNKSt14default_deleteIN8facebook5velox10serializer6presto12_GLOBAL__N_112VectorStreamEEclEPS5_.exit: ; preds = %entry
  tail call fastcc void @_ZN8facebook5velox10serializer6presto12_GLOBAL__N_112VectorStreamD2Ev(ptr noundef nonnull align 8 dereferenceable(281) %0) #18
  tail call void @_ZdlPv(ptr noundef nonnull %0) #36
  br label %if.end

if.end:                                           ; preds = %_ZNKSt14default_deleteIN8facebook5velox10serializer6presto12_GLOBAL__N_112VectorStreamEEclEPS5_.exit, %entry
  store ptr null, ptr %this, align 8
  ret void
}